; Function Attrs: mustprogress uwtable
define noundef nonnull align 8 dereferenceable(218) ptr @_ZNK7xgboost16GHistIndexMatrix9TransposeEv(ptr noundef nonnull readonly align 8 captures(none) dereferenceable(233) %0) local_unnamed_addr #3 align 2 personality ptr @__gxx_personality_v0 {
  %2 = alloca %"class.dmlc::LogMessageFatal", align 1
  %3 = getelementptr inbounds nuw i8, ptr %0, i64 200
  %4 = load ptr, ptr %3, align 8, !tbaa !3
  %.not = icmp eq ptr %4, null
  br i1 %.not, label %5, label %13, !prof !8

5:                                                ; preds = %1
  call void @llvm.lifetime.start.p0(i64 1, ptr nonnull %2) #11
  %6 = call noundef nonnull align 8 dereferenceable(376) ptr @_ZN4dmlc15LogMessageFatal8GetEntryEv(ptr noundef nonnull align 1 dereferenceable(1) %2)
  call void @_ZN4dmlc15LogMessageFatal5Entry4InitEPKci(ptr noundef nonnull align 8 dereferenceable(376) %6, ptr noundef nonnull @.str, i32 noundef 185)
  %7 = invoke noundef nonnull align 8 dereferenceable(376) ptr @_ZN4dmlc15LogMessageFatal8GetEntryEv(ptr noundef nonnull align 1 dereferenceable(1) %2)
          to label %_ZN4dmlc15LogMessageFatal6streamB5cxx11Ev.exit unwind label %10

_ZN4dmlc15LogMessageFatal6streamB5cxx11Ev.exit:   ; preds = %5
  %8 = invoke noundef nonnull align 8 dereferenceable(8) ptr @_ZSt16__ostream_insertIcSt11char_traitsIcEERSt13basic_ostreamIT_T0_ES6_PKS3_l(ptr noundef nonnull align 8 dereferenceable(8) %7, ptr noundef nonnull @.str.1, i64 noundef 22)
          to label %_ZStlsISt11char_traitsIcEERSt13basic_ostreamIcT_ES5_PKc.exit unwind label %10

_ZStlsISt11char_traitsIcEERSt13basic_ostreamIcT_ES5_PKc.exit: ; preds = %_ZN4dmlc15LogMessageFatal6streamB5cxx11Ev.exit
  %9 = invoke noundef nonnull align 8 dereferenceable(8) ptr @_ZSt16__ostream_insertIcSt11char_traitsIcEERSt13basic_ostreamIT_T0_ES6_PKS3_l(ptr noundef nonnull align 8 dereferenceable(8) %7, ptr noundef nonnull @.str.2, i64 noundef 2)
          to label %_ZStlsISt11char_traitsIcEERSt13basic_ostreamIcT_ES5_PKc.exit2 unwind label %10

_ZStlsISt11char_traitsIcEERSt13basic_ostreamIcT_ES5_PKc.exit2: ; preds = %_ZStlsISt11char_traitsIcEERSt13basic_ostreamIcT_ES5_PKc.exit
  call void @_ZN4dmlc15LogMessageFatalD2Ev(ptr noundef nonnull align 1 dereferenceable(1) %2)
  call void @llvm.lifetime.end.p0(i64 1, ptr nonnull %2) #11
  %.pre = load ptr, ptr %3, align 8, !tbaa !3
  br label %13

10:                                               ; preds = %_ZStlsISt11char_traitsIcEERSt13basic_ostreamIcT_ES5_PKc.exit, %_ZN4dmlc15LogMessageFatal6streamB5cxx11Ev.exit, %5
  %11 = landingpad { ptr, i32 }
          cleanup
  invoke void @_ZN4dmlc15LogMessageFatalD2Ev(ptr noundef nonnull align 1 dereferenceable(1) %2)
          to label %12 unwind label %15

12:                                               ; preds = %10
  call void @llvm.lifetime.end.p0(i64 1, ptr nonnull %2) #11
  resume { ptr, i32 } %11

13:                                               ; preds = %_ZStlsISt11char_traitsIcEERSt13basic_ostreamIcT_ES5_PKc.exit2, %1
  %14 = phi ptr [ %.pre, %_ZStlsISt11char_traitsIcEERSt13basic_ostreamIcT_ES5_PKc.exit2 ], [ %4, %1 ]
  ret ptr %14

15:                                               ; preds = %10
  %16 = landingpad { ptr, i32 }
          catch ptr null
  %17 = extractvalue { ptr, i32 } %16, 0
  call void @__clang_call_terminate(ptr %17) #32
  unreachable
}